Certificate:
    Data:
        Version: 3 (0x2)
        Serial Number: 1 (0x1)
    Signature Algorithm: sha256WithRSAEncryption
        Issuer: C=MY, ST=Selangor, L=Subang, O=Subangs Adhoc Authority, OU=Cryptosecurity Research, CN=Adhoc Authority CA/emailAddress=test@example.com
        Validity
            Not Before: Jun  3 14:40:39 2019 GMT
            Not After : Jun  2 14:40:39 2021 GMT
        Subject: CN=127.0.0.1
        Subject Public Key Info:
            Public Key Algorithm: rsaEncryption
                Public-Key: (2048 bit)
                Modulus:
                    00:d2:2b:f9:d9:01:01:4e:2c:fb:cd:d5:21:d0:18:
                    62:5c:c1:6f:13:d2:7f:a2:4b:14:f7:ab:ce:b9:3b:
                    59:4c:5b:77:c3:5a:60:b7:fb:bd:56:45:ac:1e:ab:
                    9a:7a:77:74:6f:a2:c5:a7:1c:95:a3:51:fd:39:0a:
                    09:75:4b:f8:9f:68:24:e2:9c:86:d6:40:39:b0:6a:
                    06:5b:ad:1d:22:0a:b4:93:a1:db:c7:2e:11:f2:52:
                    a5:60:f5:38:3c:c5:b9:c6:14:d4:84:2e:03:2d:09:
                    b4:06:d8:f2:ef:aa:cd:fc:d5:77:07:d0:e7:fd:13:
                    e4:30:91:d1:ed:68:d0:bf:81:14:9b:bc:d1:58:aa:
                    16:85:c5:72:fb:08:b7:ba:28:6b:fd:3a:44:0d:1f:
                    5f:de:44:73:53:4f:7b:ee:0a:92:c8:80:23:4e:fd:
                    45:57:31:f7:14:38:df:40:2d:b8:45:4f:87:bb:7c:
                    fb:54:1b:fd:d6:cb:c5:cb:b8:02:1e:79:25:2c:38:
                    58:50:0b:dd:ae:21:67:35:93:fe:a4:15:86:e1:3d:
                    c9:3d:1b:16:be:c5:0c:58:fa:35:7b:e4:95:a6:b1:
                    12:66:cb:c4:1a:49:a9:2e:c5:ab:11:53:cf:92:ef:
                    2e:2d:6b:45:9e:07:7b:43:d7:49:9b:7c:a6:37:25:
                    d7:63
                Exponent: 65537 (0x10001)
        X509v3 extensions:
            X509v3 Subject Key Identifier: 
                B1:F6:06:15:91:4A:45:3A:43:27:6E:D4:84:BC:99:0E:29:95:43:D8
            X509v3 Authority Key Identifier: 
                keyid:60:DE:A0:23:26:F0:C6:06:00:15:30:C4:FC:DB:BB:02:AE:75:B2:EE

            X509v3 Basic Constraints: 
                CA:FALSE
            X509v3 Key Usage: 
                Digital Signature, Key Encipherment
            X509v3 Subject Alternative Name: 
                DNS:example.com, DNS:www.example.com, DNS:mail.example.com, DNS:ftp.example.com, IP Address:127.0.0.1, IP Address:0:0:0:0:0:0:0:1
            Netscape Comment: 
                OpenSSL Generated Certificate
    Signature Algorithm: sha256WithRSAEncryption
         22:c2:d2:ef:56:76:20:f4:97:67:c9:c1:67:08:bb:e6:cb:34:
         08:11:43:11:79:46:5f:87:a2:b7:8b:73:e0:89:74:79:cc:bd:
         c5:f9:3c:60:c4:86:75:c4:10:df:bd:65:3e:f8:86:6c:20:75:
         c6:78:b4:5a:9a:aa:0e:5c:01:2a:9a:9c:29:8c:bd:2c:ee:1a:
         ba:52:c3:b3:6a:c9:8b:b7:a5:92:2f:c0:9a:1a:f6:d6:d5:34:
         ea:9b:4f:0d:e2:b1:b2:d2:2f:f2:9c:8b:c8:51:7c:0a:a1:15:
         49:39:ba:2e:29:ac:c3:a8:47:6e:81:40:91:08:c0:16:b6:98:
         12:67:02:c6:e5:30:ad:e8:50:f4:b9:15:6d:0d:15:84:33:3c:
         26:63:30:93:ee:f4:4d:92:1b:11:f6:28:1a:0a:43:53:e3:dd:
         07:0c:9c:43:af:b4:76:b2:bb:fd:55:71:03:fe:9b:7f:49:9d:
         3f:ee:15:05:9b:19:4f:2d:7b:0d:1c:f0:81:af:1e:12:42:0b:
         67:4d:34:25:98:b1:7e:b7:5a:89:c9:a8:84:b4:0a:2e:69:f0:
         8e:77:92:fd:70:f9:1e:e1:fd:ca:7e:1a:12:26:db:c7:97:ca:
         15:c5:5f:31:40:9a:f6:6e:4f:b1:e2:83:5f:cc:0a:86:91:75:
         ec:6a:99:e4:76:49:f0:ba:df:34:ab:3d:5c:c3:2b:41:eb:51:
         a4:69:0f:cf:6e:66:de:4f:1e:20:91:f2:61:58:ea:68:8c:fb:
         99:3b:e5:66:1f:9a:c0:64:0a:d2:61:94:14:61:a0:4d:ff:b5:
         31:a4:21:a1:8e:48:ec:8b:93:37:af:39:b5:7f:28:8b:78:98:
         66:70:de:a8:74:fa:9e:5a:b7:f2:b0:b3:9e:b8:9d:d6:95:ef:
         16:0d:18:e2:fd:4e:92:cb:df:c0:8c:5b:5a:6a:86:19:38:04:
         f7:37:9f:b4:2a:ec:5a:8e:5a:a0:dc:15:41:a4:66:57:44:58:
         fb:ea:09:5e:71:ec:26:9b:0e:47:65:d8:5a:b9:65:d8:05:68:
         5f:a5:42:eb:b4:0b:ca:79:12:57:3f:e0:2c:3a:f9:07:2f:8b:
         84:8c:78:a5:9c:3e:f3:03:f8:96:32:ec:77:d0:90:9c:13:e2:
         bd:4a:37:54:8d:5c:43:c2:24:43:e6:ab:7e:92:b9:d4:a5:db:
         66:17:0d:ab:ee:27:49:c8:ca:c3:77:9e:9c:2e:3d:fc:c6:6d:
         12:28:c4:22:0d:d5:89:db:01:f5:a0:46:ad:2e:09:49:ae:18:
         9a:aa:b8:6a:e7:02:d0:1b:5e:85:bf:8c:6a:56:c1:e4:39:bd:
         d4:69:2e:9a:6c:d1:6e:be
-----BEGIN CERTIFICATE-----
MIIFMTCCAxmgAwIBAgIBATANBgkqhkiG9w0BAQsFADCBszELMAkGA1UEBhMCTVkx
ETAPBgNVBAgMCFNlbGFuZ29yMQ8wDQYDVQQHDAZTdWJhbmcxIDAeBgNVBAoMF1N1
YmFuZ3MgQWRob2MgQXV0aG9yaXR5MSAwHgYDVQQLDBdDcnlwdG9zZWN1cml0eSBS
ZXNlYXJjaDEbMBkGA1UEAwwSQWRob2MgQXV0aG9yaXR5IENBMR8wHQYJKoZIhvcN
AQkBFhB0ZXN0QGV4YW1wbGUuY29tMB4XDTE5MDYwMzE0NDAzOVoXDTIxMDYwMjE0
NDAzOVowFDESMBAGA1UEAwwJMTI3LjAuMC4xMIIBIjANBgkqhkiG9w0BAQEFAAOC
AQ8AMIIBCgKCAQEA0iv52QEBTiz7zdUh0BhiXMFvE9J/oksU96vOuTtZTFt3w1pg
t/u9VkWsHquaend0b6LFpxyVo1H9OQoJdUv4n2gk4pyG1kA5sGoGW60dIgq0k6Hb
xy4R8lKlYPU4PMW5xhTUhC4DLQm0Btjy76rN/NV3B9Dn/RPkMJHR7WjQv4EUm7zR
WKoWhcVy+wi3uihr/TpEDR9f3kRzU0977gqSyIAjTv1FVzH3FDjfQC24RU+Hu3z7
VBv91svFy7gCHnklLDhYUAvdriFnNZP+pBWG4T3JPRsWvsUMWPo1e+SVprESZsvE
GkmpLsWrEVPPku8uLWtFngd7Q9dJm3ymNyXXYwIDAQABo4HtMIHqMB0GA1UdDgQW
BBSx9gYVkUpFOkMnbtSEvJkOKZVD2DAfBgNVHSMEGDAWgBRg3qAjJvDGBgAVMMT8
27sCrnWy7jAJBgNVHRMEAjAAMAsGA1UdDwQEAwIFoDBiBgNVHREEWzBZggtleGFt
cGxlLmNvbYIPd3d3LmV4YW1wbGUuY29tghBtYWlsLmV4YW1wbGUuY29tgg9mdHAu
ZXhhbXBsZS5jb22HBH8AAAGHEAAAAAAAAAAAAAAAAAAAAAEwLAYJYIZIAYb4QgEN
BB8WHU9wZW5TU0wgR2VuZXJhdGVkIENlcnRpZmljYXRlMA0GCSqGSIb3DQEBCwUA
A4ICAQAiwtLvVnYg9JdnycFnCLvmyzQIEUMReUZfh6K3i3PgiXR5zL3F+TxgxIZ1
xBDfvWU++IZsIHXGeLRamqoOXAEqmpwpjL0s7hq6UsOzasmLt6WSL8CaGvbW1TTq
m08N4rGy0i/ynIvIUXwKoRVJObouKazDqEdugUCRCMAWtpgSZwLG5TCt6FD0uRVt
DRWEMzwmYzCT7vRNkhsR9igaCkNT490HDJxDr7R2srv9VXED/pt/SZ0/7hUFmxlP
LXsNHPCBrx4SQgtnTTQlmLF+t1qJyaiEtAouafCOd5L9cPke4f3KfhoSJtvHl8oV
xV8xQJr2bk+x4oNfzAqGkXXsapnkdknwut80qz1cwytB61GkaQ/PbmbeTx4gkfJh
WOpojPuZO+VmH5rAZArSYZQUYaBN/7UxpCGhjkjsi5M3rzm1fyiLeJhmcN6odPqe
WrfysLOeuJ3Wle8WDRji/U6Sy9/AjFtaaoYZOAT3N5+0Kuxajlqg3BVBpGZXRFj7
6glecewmmw5HZdhauWXYBWhfpULrtAvKeRJXP+AsOvkHL4uEjHilnD7zA/iWMux3
0JCcE+K9SjdUjVxDwiRD5qt+krnUpdtmFw2r7idJyMrDd56cLj38xm0SKMQiDdWJ
2wH1oEatLglJrhiaqrhq5wLQG16Fv4xqVsHkOb3UaS6abNFuvg==
-----END CERTIFICATE-----
